; Function Attrs: mustprogress nofree nounwind willreturn uwtable
define noalias noundef ptr @__cli_strndup(ptr noundef readonly %0, i64 noundef %1) local_unnamed_addr #12 {
  %.not = icmp eq ptr %0, null
  br i1 %.not, label %9, label %3

3:                                                ; preds = %2
  %4 = tail call i64 @strnlen(ptr noundef nonnull %0, i64 noundef %1) #26
  %5 = add i64 %4, 1
  %6 = tail call noalias ptr @malloc(i64 noundef %5) #28
  %.not13 = icmp eq ptr %6, null
  br i1 %.not13, label %9, label %7

7:                                                ; preds = %3
  tail call void @llvm.memcpy.p0.p0.i64(ptr nonnull align 1 %6, ptr nonnull align 1 %0, i64 %4, i1 false)
  %8 = getelementptr inbounds i8, ptr %6, i64 %4
  store i8 0, ptr %8, align 1
  br label %9

9:                                                ; preds = %3, %2, %7
  %.0 = phi ptr [ %6, %7 ], [ null, %2 ], [ null, %3 ]
  ret ptr %.0
}